target datalayout = "e-m:e-p270:32:32-p271:32:32-p272:64:64-i64:64-i128:128-f80:128-n8:16:32:64-S128"
target triple = "x86_64-pc-linux-gnu"

; Function Attrs: nounwind sspstrong uwtable
define internal i64 @fun_si_iso2022jp_decoder(ptr noundef %0, ptr noundef %1, i64 noundef %2) #0 {
  %4 = alloca i64, align 8
  %5 = alloca ptr, align 8
  %6 = alloca ptr, align 8
  %7 = alloca i64, align 8
  %8 = alloca ptr, align 8
  %9 = alloca i32, align 4
  store ptr %0, ptr %5, align 8, !tbaa !6
  store ptr %1, ptr %6, align 8, !tbaa !10
  store i64 %2, ptr %7, align 8, !tbaa !13
  call void @llvm.lifetime.start.p0(i64 8, ptr %8) #3
  %10 = load ptr, ptr %5, align 8, !tbaa !6
  store ptr %10, ptr %8, align 8, !tbaa !10
  %11 = load ptr, ptr %8, align 8, !tbaa !10
  %12 = load i8, ptr %11, align 1, !tbaa !12
  %13 = zext i8 %12 to i32
  %14 = icmp eq i32 %13, 0
  br i1 %14, label %15, label %16

15:                                               ; preds = %3
  store i64 1, ptr %4, align 8
  store i32 1, ptr %9, align 4
  br label %30

16:                                               ; preds = %3
  %17 = load ptr, ptr %6, align 8, !tbaa !10
  %18 = getelementptr inbounds i8, ptr %17, i64 0
  %19 = load i8, ptr %18, align 1, !tbaa !12
  %20 = zext i8 %19 to i32
  %21 = icmp sle i32 33, %20
  br i1 %21, label %22, label %29

22:                                               ; preds = %16
  %23 = load ptr, ptr %6, align 8, !tbaa !10
  %24 = getelementptr inbounds i8, ptr %23, i64 0
  %25 = load i8, ptr %24, align 1, !tbaa !12
  %26 = zext i8 %25 to i32
  %27 = icmp sle i32 %26, 126
  br i1 %27, label %28, label %29

28:                                               ; preds = %22
  store i64 64, ptr %4, align 8
  store i32 1, ptr %9, align 4
  br label %30

29:                                               ; preds = %22, %16
  store i64 7, ptr %4, align 8
  store i32 1, ptr %9, align 4
  br label %30

30:                                               ; preds = %29, %28, %15
  call void @llvm.lifetime.end.p0(i64 8, ptr %8) #3
  %31 = load i64, ptr %4, align 8
  ret i64 %31
}